; Function Attrs: nounwind uwtable
define ptr @l_Lean_Elab_Term_elabPipeCompletion___lambda__1(ptr noundef %0, ptr noundef readnone captures(none) %1, ptr noundef %2, ptr noundef %3, ptr noundef %4, ptr noundef %5, ptr noundef %6, ptr noundef %7, ptr noundef %8) local_unnamed_addr #0 {
  %10 = tail call ptr @l_Lean_Syntax_getArg(ptr noundef %0, ptr noundef nonnull inttoptr (i64 3 to ptr)) #6
  %11 = load ptr, ptr @l_Lean_Elab_Term_elabPipeCompletion___lambda__1___closed__2, align 8, !tbaa !4
  %12 = tail call ptr @l_Lean_throwErrorAt___at_Lean_Elab_Term_elabPipeCompletion___spec__1(ptr noundef %10, ptr noundef %11, ptr noundef %2, ptr noundef %3, ptr noundef %4, ptr noundef %5, ptr noundef %6, ptr noundef %7, ptr noundef %8)
  %13 = ptrtoint ptr %10 to i64
  %14 = and i64 %13, 1
  %.not = icmp eq i64 %14, 0
  br i1 %.not, label %15, label %lean_dec.exit

15:                                               ; preds = %9
  %16 = load i32, ptr %10, align 4, !tbaa !8
  %17 = icmp sgt i32 %16, 1
  br i1 %17, label %18, label %20, !prof !15

18:                                               ; preds = %15
  %19 = add nsw i32 %16, -1
  store i32 %19, ptr %10, align 4, !tbaa !8
  br label %lean_dec.exit

20:                                               ; preds = %15
  %.not.i = icmp eq i32 %16, 0
  br i1 %.not.i, label %lean_dec.exit, label %21

21:                                               ; preds = %20
  tail call void @lean_dec_ref_cold(ptr noundef nonnull %10) #6
  br label %lean_dec.exit

lean_dec.exit:                                    ; preds = %21, %20, %18, %9
  ret ptr %12
}